target datalayout = "e-m:e-p270:32:32-p271:32:32-p272:64:64-i64:64-i128:128-f80:128-n8:16:32:64-S128"
target triple = "x86_64-pc-linux-gnu"

%struct.object_id = type { [32 x i8], i32 }
%struct.commit = type { %struct.object, i64, ptr, ptr, i32 }
%struct.object = type { i32, %struct.object_id }
%struct.packed_commit_list = type { ptr, i64, i64 }
%struct.write_commit_graph_context = type { ptr, ptr, ptr, %struct.oid_array, %struct.packed_commit_list, i32, i32, i64, ptr, i32, i64, ptr, i32, i32, ptr, ptr, ptr, i32, ptr, i8, ptr, ptr, i64, ptr, i32, i32, i32, i32, i32 }
%struct.oid_array = type { ptr, i64, i64, i32 }

; Function Attrs: inlinehint nounwind uwtable
define internal i32 @default_swab32(i32 noundef %0) #5 {
  %2 = alloca i32, align 4
  store i32 %0, ptr %2, align 4, !tbaa !4
  %3 = load i32, ptr %2, align 4, !tbaa !4
  %4 = and i32 %3, -16777216
  %5 = lshr i32 %4, 24
  %6 = load i32, ptr %2, align 4, !tbaa !4
  %7 = and i32 %6, 16711680
  %8 = lshr i32 %7, 8
  %9 = or i32 %5, %8
  %10 = load i32, ptr %2, align 4, !tbaa !4
  %11 = and i32 %10, 65280
  %12 = shl i32 %11, 8
  %13 = or i32 %9, %12
  %14 = load i32, ptr %2, align 4, !tbaa !4
  %15 = and i32 %14, 255
  %16 = shl i32 %15, 24
  %17 = or i32 %13, %16
  ret i32 %17
}

; Function Attrs: inlinehint nounwind uwtable
define internal i32 @git_bswap32(i32 noundef %0) #5 {
  %2 = alloca i32, align 4
  %3 = alloca i32, align 4
  store i32 %0, ptr %2, align 4, !tbaa !4
  call void @llvm.lifetime.start.p0(i64 4, ptr %3) #12
  %4 = load i32, ptr %2, align 4, !tbaa !4
  %5 = call i1 @llvm.is.constant.i32(i32 %4)
  br i1 %5, label %6, label %9

6:                                                ; preds = %1
  %7 = load i32, ptr %2, align 4, !tbaa !4
  %8 = call i32 @default_swab32(i32 noundef %7)
  store i32 %8, ptr %3, align 4, !tbaa !4
  br label %12

9:                                                ; preds = %1
  %10 = load i32, ptr %2, align 4, !tbaa !4
  %11 = call i32 asm "bswap $0", "=r,0,~{dirflag},~{fpsr},~{flags}"(i32 %10) #16, !srcloc !315
  store i32 %11, ptr %3, align 4, !tbaa !4
  br label %12

12:                                               ; preds = %9, %6
  %13 = load i32, ptr %3, align 4, !tbaa !4
  call void @llvm.lifetime.end.p0(i64 4, ptr %3) #12
  ret i32 %13
}

; Function Attrs: inlinehint nounwind uwtable
define internal void @hashwrite_be32(ptr noundef %0, i32 noundef %1) #5 {
  %3 = alloca ptr, align 8
  %4 = alloca i32, align 4
  store ptr %0, ptr %3, align 8, !tbaa !282
  store i32 %1, ptr %4, align 4, !tbaa !4
  %5 = load i32, ptr %4, align 4, !tbaa !4
  %6 = call i32 @git_bswap32(i32 noundef %5)
  store i32 %6, ptr %4, align 4, !tbaa !4
  %7 = load ptr, ptr %3, align 8, !tbaa !282
  call void @hashwrite(ptr noundef %7, ptr noundef %4, i32 noundef 4)
  ret void
}

; Function Attrs: nounwind uwtable
define internal i32 @write_graph_chunk_fanout(ptr noundef %0, ptr noundef %1) #0 {
  %3 = alloca ptr, align 8
  %4 = alloca ptr, align 8
  %5 = alloca ptr, align 8
  %6 = alloca i32, align 4
  %7 = alloca i32, align 4
  %8 = alloca ptr, align 8
  store ptr %0, ptr %3, align 8, !tbaa !282
  store ptr %1, ptr %4, align 8, !tbaa !78
  call void @llvm.lifetime.start.p0(i64 8, ptr %5) #12
  %9 = load ptr, ptr %4, align 8, !tbaa !78
  store ptr %9, ptr %5, align 8, !tbaa !197
  call void @llvm.lifetime.start.p0(i64 4, ptr %6) #12
  call void @llvm.lifetime.start.p0(i64 4, ptr %7) #12
  store i32 0, ptr %7, align 4, !tbaa !4
  call void @llvm.lifetime.start.p0(i64 8, ptr %8) #12
  %10 = load ptr, ptr %5, align 8, !tbaa !197
  %11 = getelementptr inbounds nuw %struct.write_commit_graph_context, ptr %10, i32 0, i32 4
  %12 = getelementptr inbounds nuw %struct.packed_commit_list, ptr %11, i32 0, i32 0
  %13 = load ptr, ptr %12, align 8, !tbaa !222
  store ptr %13, ptr %8, align 8, !tbaa !165
  store i32 0, ptr %6, align 4, !tbaa !4
  br label %14

14:                                               ; preds = %53, %2
  %15 = load i32, ptr %6, align 4, !tbaa !4
  %16 = icmp slt i32 %15, 256
  br i1 %16, label %17, label %56

17:                                               ; preds = %14
  br label %18

18:                                               ; preds = %38, %17
  %19 = load i32, ptr %7, align 4, !tbaa !4
  %20 = sext i32 %19 to i64
  %21 = load ptr, ptr %5, align 8, !tbaa !197
  %22 = getelementptr inbounds nuw %struct.write_commit_graph_context, ptr %21, i32 0, i32 4
  %23 = getelementptr inbounds nuw %struct.packed_commit_list, ptr %22, i32 0, i32 1
  %24 = load i64, ptr %23, align 8, !tbaa !218
  %25 = icmp ult i64 %20, %24
  br i1 %25, label %26, label %50

26:                                               ; preds = %18
  %27 = load ptr, ptr %8, align 8, !tbaa !165
  %28 = load ptr, ptr %27, align 8, !tbaa !52
  %29 = getelementptr inbounds nuw %struct.commit, ptr %28, i32 0, i32 0
  %30 = getelementptr inbounds nuw %struct.object, ptr %29, i32 0, i32 1
  %31 = getelementptr inbounds nuw %struct.object_id, ptr %30, i32 0, i32 0
  %32 = getelementptr inbounds [32 x i8], ptr %31, i64 0, i64 0
  %33 = load i8, ptr %32, align 4, !tbaa !85
  %34 = zext i8 %33 to i32
  %35 = load i32, ptr %6, align 4, !tbaa !4
  %36 = icmp ne i32 %34, %35
  br i1 %36, label %37, label %38

37:                                               ; preds = %26
  br label %50

38:                                               ; preds = %26
  %39 = load ptr, ptr %5, align 8, !tbaa !197
  %40 = getelementptr inbounds nuw %struct.write_commit_graph_context, ptr %39, i32 0, i32 8
  %41 = load ptr, ptr %40, align 8, !tbaa !242
  %42 = load ptr, ptr %5, align 8, !tbaa !197
  %43 = getelementptr inbounds nuw %struct.write_commit_graph_context, ptr %42, i32 0, i32 10
  %44 = load i64, ptr %43, align 8, !tbaa !365
  %45 = add i64 %44, 1
  store i64 %45, ptr %43, align 8, !tbaa !365
  call void @display_progress(ptr noundef %41, i64 noundef %45)
  %46 = load i32, ptr %7, align 4, !tbaa !4
  %47 = add nsw i32 %46, 1
  store i32 %47, ptr %7, align 4, !tbaa !4
  %48 = load ptr, ptr %8, align 8, !tbaa !165
  %49 = getelementptr inbounds nuw ptr, ptr %48, i32 1
  store ptr %49, ptr %8, align 8, !tbaa !165
  br label %18, !llvm.loop !366

50:                                               ; preds = %37, %18
  %51 = load ptr, ptr %3, align 8, !tbaa !282
  %52 = load i32, ptr %7, align 4, !tbaa !4
  call void @hashwrite_be32(ptr noundef %51, i32 noundef %52)
  br label %53

53:                                               ; preds = %50
  %54 = load i32, ptr %6, align 4, !tbaa !4
  %55 = add nsw i32 %54, 1
  store i32 %55, ptr %6, align 4, !tbaa !4
  br label %14, !llvm.loop !367

56:                                               ; preds = %14
  call void @llvm.lifetime.end.p0(i64 8, ptr %8) #12
  call void @llvm.lifetime.end.p0(i64 4, ptr %7) #12
  call void @llvm.lifetime.end.p0(i64 4, ptr %6) #12
  call void @llvm.lifetime.end.p0(i64 8, ptr %5) #12
  ret i32 0
}