; Function Attrs: nounwind uwtable
define internal noundef i32 @write_graph_chunk_fanout(ptr noundef %0, ptr noundef captures(none) %1) #0 {
  %3 = alloca i32, align 4
  %4 = getelementptr inbounds nuw i8, ptr %1, i64 56
  %5 = load ptr, ptr %4, align 8, !tbaa !224
  %6 = getelementptr inbounds nuw i8, ptr %1, i64 64
  %7 = getelementptr inbounds nuw i8, ptr %1, i64 96
  %8 = getelementptr inbounds nuw i8, ptr %1, i64 112
  br label %.preheader

.preheader:                                       ; preds = %2, %._crit_edge
  %.024 = phi ptr [ %5, %2 ], [ %.1.lcssa, %._crit_edge ]
  %.01323 = phi i32 [ 0, %2 ], [ %.114.lcssa, %._crit_edge ]
  %.01522 = phi i32 [ 0, %2 ], [ %24, %._crit_edge ]
  %9 = sext i32 %.01323 to i64
  %10 = load i64, ptr %6, align 8, !tbaa !222
  %11 = icmp ugt i64 %10, %9
  br i1 %11, label %.lr.ph, label %._crit_edge

.lr.ph:                                           ; preds = %.preheader, %16
  %indvars.iv = phi i64 [ %indvars.iv.next, %16 ], [ %9, %.preheader ]
  %.117 = phi ptr [ %20, %16 ], [ %.024, %.preheader ]
  %12 = load ptr, ptr %.117, align 8, !tbaa !165
  %13 = getelementptr inbounds nuw i8, ptr %12, i64 4
  %14 = load i8, ptr %13, align 4, !tbaa !80
  %15 = zext i8 %14 to i32
  %.not = icmp eq i32 %.01522, %15
  br i1 %.not, label %16, label %._crit_edge.loopexit

16:                                               ; preds = %.lr.ph
  %17 = load ptr, ptr %7, align 8, !tbaa !203
  %18 = load i64, ptr %8, align 8, !tbaa !303
  %19 = add i64 %18, 1
  store i64 %19, ptr %8, align 8, !tbaa !303
  call void @display_progress(ptr noundef %17, i64 noundef %19) #24
  %indvars.iv.next = add nuw nsw i64 %indvars.iv, 1
  %20 = getelementptr inbounds nuw i8, ptr %.117, i64 8
  %21 = load i64, ptr %6, align 8, !tbaa !222
  %22 = icmp ugt i64 %21, %indvars.iv.next
  br i1 %22, label %.lr.ph, label %._crit_edge.loopexit, !llvm.loop !304

._crit_edge.loopexit:                             ; preds = %.lr.ph, %16
  %.114.lcssa.ph.in = phi i64 [ %indvars.iv.next, %16 ], [ %indvars.iv, %.lr.ph ]
  %.1.lcssa.ph = phi ptr [ %20, %16 ], [ %.117, %.lr.ph ]
  %.114.lcssa.ph = trunc i64 %.114.lcssa.ph.in to i32
  br label %._crit_edge

._crit_edge:                                      ; preds = %._crit_edge.loopexit, %.preheader
  %.114.lcssa = phi i32 [ %.01323, %.preheader ], [ %.114.lcssa.ph, %._crit_edge.loopexit ]
  %.1.lcssa = phi ptr [ %.024, %.preheader ], [ %.1.lcssa.ph, %._crit_edge.loopexit ]
  call void @llvm.lifetime.start.p0(i64 4, ptr nonnull %3)
  %23 = call i32 asm "bswap $0", "=r,0,~{dirflag},~{fpsr},~{flags}"(i32 %.114.lcssa) #26, !srcloc !96
  store i32 %23, ptr %3, align 4, !tbaa !47
  call void @hashwrite(ptr noundef %0, ptr noundef nonnull %3, i32 noundef 4) #24
  call void @llvm.lifetime.end.p0(i64 4, ptr nonnull %3)
  %24 = add nuw nsw i32 %.01522, 1
  %exitcond.not = icmp eq i32 %24, 256
  br i1 %exitcond.not, label %25, label %.preheader, !llvm.loop !305

25:                                               ; preds = %._crit_edge
  ret i32 0
}